; Function Attrs: mustprogress uwtable
define void @_ZN3gmx10EnergyData8teardownEv(ptr noundef nonnull readonly align 8 captures(none) dereferenceable(552) %0) local_unnamed_addr #0 align 2 {
  %2 = getelementptr inbounds nuw i8, ptr %0, i64 448
  %3 = load ptr, ptr %2, align 8, !tbaa !145
  %4 = getelementptr inbounds nuw i8, ptr %3, i64 32
  %5 = load i32, ptr %4, align 8, !tbaa !236
  %6 = icmp sgt i32 %5, 0
  br i1 %6, label %7, label %25

7:                                                ; preds = %1
  %8 = getelementptr inbounds nuw i8, ptr %0, i64 176
  %9 = load i8, ptr %8, align 8, !tbaa !141, !range !21, !noundef !22
  %10 = trunc nuw i8 %9 to i1
  br i1 %10, label %switch.edge, label %25

switch.edge:                                      ; preds = %7
  %11 = getelementptr inbounds nuw i8, ptr %0, i64 8
  %12 = load ptr, ptr %11, align 8, !tbaa !109
  %13 = getelementptr inbounds nuw i8, ptr %0, i64 496
  %14 = load ptr, ptr %13, align 8, !tbaa !150
  %15 = getelementptr inbounds nuw i8, ptr %3, i64 16
  %16 = load i32, ptr %15, align 8, !tbaa !318
  %17 = getelementptr inbounds nuw i8, ptr %3, i64 4
  %18 = load i32, ptr %17, align 4, !tbaa !319
  %19 = icmp ult i32 %18, 13
  %switch.cast = trunc i32 %18 to i13
  %switch.downshift = lshr i13 -1023, %switch.cast
  %switch.masked = trunc i13 %switch.downshift to i1
  %20 = select i1 %19, i1 %switch.masked, i1 false
  tail call void @_ZNK3gmx12EnergyOutput23printEnergyConservationEP8_IO_FILEib(ptr noundef nonnull align 8 dereferenceable(392) %12, ptr noundef %14, i32 noundef %16, i1 noundef zeroext %20)
  %21 = load ptr, ptr %11, align 8, !tbaa !109
  %22 = load ptr, ptr %13, align 8, !tbaa !150
  %23 = getelementptr inbounds nuw i8, ptr %0, i64 520
  %24 = load ptr, ptr %23, align 8, !tbaa !153
  tail call void @_ZN3gmx12EnergyOutput13printAveragesEP8_IO_FILEPK16SimulationGroups(ptr noundef nonnull align 8 dereferenceable(392) %21, ptr noundef %22, ptr noundef %24)
  br label %25

25:                                               ; preds = %switch.edge, %7, %1
  ret void
}